; Function Attrs: nounwind uwtable
define ptr @l_Array_forIn_x27Unsafe_loop___at_Lean_Server_Test_Runner_main___spec__29___boxed(ptr noundef %0, ptr noundef %1, ptr noundef %2, ptr noundef %3, ptr noundef %4, ptr noundef %5, ptr noundef %6, ptr noundef %7) local_unnamed_addr #1 {
  %9 = getelementptr i8, ptr %3, i64 8
  %.val31 = load i64, ptr %9, align 8, !tbaa !12
  %10 = ptrtoint ptr %3 to i64
  %11 = and i64 %10, 1
  %.not = icmp eq i64 %11, 0
  br i1 %.not, label %12, label %lean_dec.exit20

12:                                               ; preds = %8
  %13 = load i32, ptr %3, align 4, !tbaa !8
  %14 = icmp sgt i32 %13, 1
  br i1 %14, label %15, label %17, !prof !11

15:                                               ; preds = %12
  %16 = add nsw i32 %13, -1
  store i32 %16, ptr %3, align 4, !tbaa !8
  br label %lean_dec.exit20

17:                                               ; preds = %12
  %.not.i = icmp eq i32 %13, 0
  br i1 %.not.i, label %lean_dec.exit20, label %18

18:                                               ; preds = %17
  tail call void @lean_dec_ref_cold(ptr noundef nonnull %3) #6
  br label %lean_dec.exit20

lean_dec.exit20:                                  ; preds = %18, %17, %15, %8
  %19 = getelementptr i8, ptr %4, i64 8
  %.val = load i64, ptr %19, align 8, !tbaa !12
  %20 = ptrtoint ptr %4 to i64
  %21 = and i64 %20, 1
  %.not32 = icmp eq i64 %21, 0
  br i1 %.not32, label %22, label %lean_dec.exit19

22:                                               ; preds = %lean_dec.exit20
  %23 = load i32, ptr %4, align 4, !tbaa !8
  %24 = icmp sgt i32 %23, 1
  br i1 %24, label %25, label %27, !prof !11

25:                                               ; preds = %22
  %26 = add nsw i32 %23, -1
  store i32 %26, ptr %4, align 4, !tbaa !8
  br label %lean_dec.exit19

27:                                               ; preds = %22
  %.not.i21 = icmp eq i32 %23, 0
  br i1 %.not.i21, label %lean_dec.exit19, label %28

28:                                               ; preds = %27
  tail call void @lean_dec_ref_cold(ptr noundef nonnull %4) #6
  br label %lean_dec.exit19

lean_dec.exit19:                                  ; preds = %28, %27, %25, %lean_dec.exit20
  %29 = tail call ptr @l_Array_forIn_x27Unsafe_loop___at_Lean_Server_Test_Runner_main___spec__29(ptr poison, ptr poison, ptr noundef %2, i64 noundef %.val31, i64 noundef %.val, ptr noundef %5, ptr poison, ptr noundef %7)
  %30 = ptrtoint ptr %6 to i64
  %31 = and i64 %30, 1
  %.not33 = icmp eq i64 %31, 0
  br i1 %.not33, label %32, label %lean_dec.exit18

32:                                               ; preds = %lean_dec.exit19
  %33 = load i32, ptr %6, align 4, !tbaa !8
  %34 = icmp sgt i32 %33, 1
  br i1 %34, label %35, label %37, !prof !11

35:                                               ; preds = %32
  %36 = add nsw i32 %33, -1
  store i32 %36, ptr %6, align 4, !tbaa !8
  br label %lean_dec.exit18

37:                                               ; preds = %32
  %.not.i23 = icmp eq i32 %33, 0
  br i1 %.not.i23, label %lean_dec.exit18, label %38

38:                                               ; preds = %37
  tail call void @lean_dec_ref_cold(ptr noundef nonnull %6) #6
  br label %lean_dec.exit18

lean_dec.exit18:                                  ; preds = %38, %37, %35, %lean_dec.exit19
  %39 = ptrtoint ptr %2 to i64
  %40 = and i64 %39, 1
  %.not34 = icmp eq i64 %40, 0
  br i1 %.not34, label %41, label %lean_dec.exit17

41:                                               ; preds = %lean_dec.exit18
  %42 = load i32, ptr %2, align 4, !tbaa !8
  %43 = icmp sgt i32 %42, 1
  br i1 %43, label %44, label %46, !prof !11

44:                                               ; preds = %41
  %45 = add nsw i32 %42, -1
  store i32 %45, ptr %2, align 4, !tbaa !8
  br label %lean_dec.exit17

46:                                               ; preds = %41
  %.not.i25 = icmp eq i32 %42, 0
  br i1 %.not.i25, label %lean_dec.exit17, label %47

47:                                               ; preds = %46
  tail call void @lean_dec_ref_cold(ptr noundef nonnull %2) #6
  br label %lean_dec.exit17

lean_dec.exit17:                                  ; preds = %47, %46, %44, %lean_dec.exit18
  %48 = ptrtoint ptr %1 to i64
  %49 = and i64 %48, 1
  %.not35 = icmp eq i64 %49, 0
  br i1 %.not35, label %50, label %lean_dec.exit16

50:                                               ; preds = %lean_dec.exit17
  %51 = load i32, ptr %1, align 4, !tbaa !8
  %52 = icmp sgt i32 %51, 1
  br i1 %52, label %53, label %55, !prof !11

53:                                               ; preds = %50
  %54 = add nsw i32 %51, -1
  store i32 %54, ptr %1, align 4, !tbaa !8
  br label %lean_dec.exit16

55:                                               ; preds = %50
  %.not.i27 = icmp eq i32 %51, 0
  br i1 %.not.i27, label %lean_dec.exit16, label %56

56:                                               ; preds = %55
  tail call void @lean_dec_ref_cold(ptr noundef nonnull %1) #6
  br label %lean_dec.exit16

lean_dec.exit16:                                  ; preds = %56, %55, %53, %lean_dec.exit17
  %57 = ptrtoint ptr %0 to i64
  %58 = and i64 %57, 1
  %.not36 = icmp eq i64 %58, 0
  br i1 %.not36, label %59, label %lean_dec.exit

59:                                               ; preds = %lean_dec.exit16
  %60 = load i32, ptr %0, align 4, !tbaa !8
  %61 = icmp sgt i32 %60, 1
  br i1 %61, label %62, label %64, !prof !11

62:                                               ; preds = %59
  %63 = add nsw i32 %60, -1
  store i32 %63, ptr %0, align 4, !tbaa !8
  br label %lean_dec.exit

64:                                               ; preds = %59
  %.not.i29 = icmp eq i32 %60, 0
  br i1 %.not.i29, label %lean_dec.exit, label %65

65:                                               ; preds = %64
  tail call void @lean_dec_ref_cold(ptr noundef nonnull %0) #6
  br label %lean_dec.exit

lean_dec.exit:                                    ; preds = %65, %64, %62, %lean_dec.exit16
  ret ptr %29
}